; Function Attrs: mustprogress uwtable
define hidden void @_ZN3ue212ComponentEUS13notePositionsERNS_18GlushkovBuildStateE(ptr nocapture noundef nonnull align 8 dereferenceable(28) %this, ptr noundef nonnull align 8 dereferenceable(8) %bs) unnamed_addr #0 align 2 {
entry:
  %ref.tmp = alloca %"class.ue2::CharReach", align 8
  %vtable = load ptr, ptr %bs, align 8
  %vfn = getelementptr inbounds i8, ptr %vtable, i64 16
  %0 = load ptr, ptr %vfn, align 8
  %call = tail call noundef nonnull align 8 dereferenceable(8) ptr %0(ptr noundef nonnull align 8 dereferenceable(8) %bs)
  %vtable2 = load ptr, ptr %call, align 8
  %vfn3 = getelementptr inbounds i8, ptr %vtable2, i64 16
  %1 = load ptr, ptr %vfn3, align 8
  %call4 = tail call noundef i32 %1(ptr noundef nonnull align 8 dereferenceable(8) %call, i64 noundef 1)
  %position = getelementptr inbounds i8, ptr %this, i64 24
  store i32 %call4, ptr %position, align 8
  call void @llvm.memset.p0.i64(ptr noundef nonnull align 8 dereferenceable(32) %ref.tmp, i8 -1, i64 32, i1 false), !alias.scope !5
  %vtable6 = load ptr, ptr %call, align 8
  %vfn7 = getelementptr inbounds i8, ptr %vtable6, i64 72
  %2 = load ptr, ptr %vfn7, align 8
  call void %2(ptr noundef nonnull align 8 dereferenceable(8) %call, i32 noundef %call4, ptr noundef nonnull align 8 dereferenceable(32) %ref.tmp)
  %3 = load i32, ptr %position, align 8
  %vtable9 = load ptr, ptr %call, align 8
  %vfn10 = getelementptr inbounds i8, ptr %vtable9, i64 64
  %4 = load ptr, ptr %vfn10, align 8
  call void %4(ptr noundef nonnull align 8 dereferenceable(8) %call, i32 noundef %3, i32 noundef 0)
  %utf8 = getelementptr inbounds i8, ptr %this, i64 20
  %5 = load i8, ptr %utf8, align 4
  %6 = and i8 %5, 1
  %tobool.not = icmp eq i8 %6, 0
  br i1 %tobool.not, label %if.end, label %if.then

if.then:                                          ; preds = %entry
  %7 = load i32, ptr %position, align 8
  %vtable13 = load ptr, ptr %call, align 8
  %vfn14 = getelementptr inbounds i8, ptr %vtable13, i64 104
  %8 = load ptr, ptr %vfn14, align 8
  call void %8(ptr noundef nonnull align 8 dereferenceable(8) %call, i32 noundef %7, i32 noundef %7)
  br label %if.end

if.end:                                           ; preds = %if.then, %entry
  ret void
}